Certificate:
    Data:
        Version: 3 (0x2)
        Serial Number:
            1c:6e:2c:82:00:e6:a9:e3:a2:33:75:f2:5f:34:47:5d
    Signature Algorithm: sha256WithRSAEncryption
        Issuer: C=US, O=Hazelcast Test, CN=Hazelcast Test Sub CA
        Validity
            Not Before: Jan 21 15:14:28 2019 GMT
            Not After : Jan 16 15:14:28 2039 GMT
        Subject: C=US, O=Hazelcast Test, CN=server
        Subject Public Key Info:
            Public Key Algorithm: rsaEncryption
                Public-Key: (2048 bit)
                Modulus:
                    00:ba:69:09:f0:34:a3:19:53:79:80:87:c4:52:88:
                    02:68:c0:08:aa:b1:21:37:7c:cd:6f:1a:8a:bc:2d:
                    85:bd:e2:df:26:8a:9d:59:29:30:e1:ed:0b:4f:ac:
                    b2:b0:50:f1:76:5e:31:61:c5:20:ab:26:18:7d:07:
                    8f:9e:5a:6b:27:7d:fa:f1:23:12:a1:e4:74:4a:23:
                    c9:4c:e6:90:58:0b:c0:1a:8f:46:a7:d5:19:5e:f6:
                    b8:a6:28:c5:f2:cc:f0:2b:8f:6b:55:f4:5f:18:fb:
                    c8:3d:e5:1e:8a:20:d6:5b:1f:d9:d5:ab:de:3e:ac:
                    fa:7b:17:2f:b6:87:3d:7e:ec:b2:03:0f:f9:c0:a9:
                    a6:30:d4:90:05:df:62:e7:ba:63:f1:e5:e2:6d:90:
                    e8:4c:83:f2:26:d4:44:c7:4e:7d:71:02:e6:85:7b:
                    02:df:e4:e5:8a:3d:24:97:f6:8f:aa:9b:db:bf:42:
                    b4:f1:04:31:fe:54:54:c7:b9:9c:04:67:0c:01:30:
                    fd:da:ca:08:88:24:f4:22:4f:c5:ee:13:a3:76:2f:
                    54:09:33:e6:ab:56:f5:9c:6d:c3:5d:5e:20:06:31:
                    ea:a8:0f:66:2d:b2:fd:4c:97:27:43:c2:e4:cf:58:
                    c7:f0:dc:6f:8b:b5:68:5d:f5:95:d7:59:7d:8c:46:
                    72:2b
                Exponent: 65537 (0x10001)
        X509v3 extensions:
            Authority Information Access: 
                CA Issuers - URI:http://sub-ca.hazelcast-test.download/sub-ca.crt
                OCSP - URI:http://ocsp.sub-ca.hazelcast-test.download:9081

            X509v3 Authority Key Identifier: 
                keyid:4A:57:B3:D9:AB:DE:F2:07:0F:4A:D1:D5:D5:13:B7:CB:74:62:EE:1A

            X509v3 Basic Constraints: critical
                CA:FALSE
            X509v3 CRL Distribution Points: 

                Full Name:
                  URI:http://sub-ca.hazelcast-test.download/sub-ca.crl

            X509v3 Extended Key Usage: 
                TLS Web Client Authentication, TLS Web Server Authentication
            X509v3 Key Usage: critical
                Digital Signature, Key Encipherment
            X509v3 Subject Key Identifier: 
                D9:88:D3:C4:C9:AE:B3:7C:D0:AC:4A:CD:06:50:EC:94:E9:2A:6E:E5
    Signature Algorithm: sha256WithRSAEncryption
         94:dd:c6:ac:c2:cc:48:46:9f:dd:1e:e4:e7:3b:d0:5f:86:c0:
         24:f0:ab:3a:bc:e0:92:73:cc:b7:35:fa:63:ec:a6:06:03:90:
         33:90:c4:fa:b3:33:3a:a4:a7:50:ef:70:9d:d1:e6:fc:bd:b7:
         6e:9c:64:76:8b:6a:f8:1b:76:ec:64:4f:cd:e7:6b:aa:b8:70:
         3d:83:44:1f:1a:b0:be:11:7d:25:e9:1a:65:36:ae:6e:e9:c8:
         8b:55:ad:57:ef:97:a1:a3:5c:97:84:a1:50:16:9b:19:20:9b:
         c4:12:5f:93:13:42:e1:ff:c3:8d:d6:de:06:5a:9c:26:04:32:
         e8:ab:84:a3:ca:79:99:46:4b:71:83:11:18:e9:a0:c9:cd:bb:
         1a:c6:86:27:55:ea:c2:79:b7:cd:d0:36:ca:8d:a5:7f:e6:38:
         78:25:1b:a7:ba:64:6b:4d:b1:ff:71:9e:4b:f1:6d:c5:16:85:
         e0:b4:bc:64:5b:56:da:b7:86:a7:db:35:e1:79:30:10:3c:cc:
         8d:40:f1:02:1c:3b:9d:a6:7e:9d:82:55:a8:0b:0e:3e:d0:a9:
         5c:fd:b8:85:d2:06:dd:15:08:4c:a7:90:2a:31:67:b9:e0:e7:
         72:1e:71:3a:a0:64:b0:5f:92:b1:95:c2:e7:42:da:58:04:b6:
         56:06:0a:72
-----BEGIN CERTIFICATE-----
MIIEWTCCA0GgAwIBAgIQHG4sggDmqeOiM3XyXzRHXTANBgkqhkiG9w0BAQsFADBG
MQswCQYDVQQGEwJVUzEXMBUGA1UECgwOSGF6ZWxjYXN0IFRlc3QxHjAcBgNVBAMM
FUhhemVsY2FzdCBUZXN0IFN1YiBDQTAeFw0xOTAxMjExNTE0MjhaFw0zOTAxMTYx
NTE0MjhaMDcxCzAJBgNVBAYTAlVTMRcwFQYDVQQKDA5IYXplbGNhc3QgVGVzdDEP
MA0GA1UEAwwGc2VydmVyMIIBIjANBgkqhkiG9w0BAQEFAAOCAQ8AMIIBCgKCAQEA
umkJ8DSjGVN5gIfEUogCaMAIqrEhN3zNbxqKvC2FveLfJoqdWSkw4e0LT6yysFDx
dl4xYcUgqyYYfQePnlprJ3368SMSoeR0SiPJTOaQWAvAGo9Gp9UZXva4pijF8szw
K49rVfRfGPvIPeUeiiDWWx/Z1avePqz6excvtoc9fuyyAw/5wKmmMNSQBd9i57pj
8eXibZDoTIPyJtREx059cQLmhXsC3+Tlij0kl/aPqpvbv0K08QQx/lRUx7mcBGcM
ATD92soIiCT0Ik/F7hOjdi9UCTPmq1b1nG3DXV4gBjHqqA9mLbL9TJcnQ8Lkz1jH
8Nxvi7VoXfWV11l9jEZyKwIDAQABo4IBUDCCAUwwgYkGCCsGAQUFBwEBBH0wezA8
BggrBgEFBQcwAoYwaHR0cDovL3N1Yi1jYS5oYXplbGNhc3QtdGVzdC5kb3dubG9h
ZC9zdWItY2EuY3J0MDsGCCsGAQUFBzABhi9odHRwOi8vb2NzcC5zdWItY2EuaGF6
ZWxjYXN0LXRlc3QuZG93bmxvYWQ6OTA4MTAfBgNVHSMEGDAWgBRKV7PZq97yBw9K
0dXVE7fLdGLuGjAMBgNVHRMBAf8EAjAAMEEGA1UdHwQ6MDgwNqA0oDKGMGh0dHA6
Ly9zdWItY2EuaGF6ZWxjYXN0LXRlc3QuZG93bmxvYWQvc3ViLWNhLmNybDAdBgNV
HSUEFjAUBggrBgEFBQcDAgYIKwYBBQUHAwEwDgYDVR0PAQH/BAQDAgWgMB0GA1Ud
DgQWBBTZiNPEya6zfNCsSs0GUOyU6Spu5TANBgkqhkiG9w0BAQsFAAOCAQEAlN3G
rMLMSEaf3R7k5zvQX4bAJPCrOrzgknPMtzX6Y+ymBgOQM5DE+rMzOqSnUO9wndHm
/L23bpxkdotq+Bt27GRPzedrqrhwPYNEHxqwvhF9JekaZTaubunIi1WtV++XoaNc
l4ShUBabGSCbxBJfkxNC4f/DjdbeBlqcJgQy6KuEo8p5mUZLcYMRGOmgyc27GsaG
J1Xqwnm3zdA2yo2lf+Y4eCUbp7pka02x/3GeS/FtxRaF4LS8ZFtW2reGp9s14Xkw
EDzMjUDxAhw7naZ+nYJVqAsOPtCpXP24hdIG3RUITKeQKjFnueDnch5xOqBksF+S
sZXC50LaWAS2VgYKcg==
-----END CERTIFICATE-----
