Certificate:
    Data:
        Version: 3 (0x2)
        Serial Number:
            1c:6e:2c:82:00:e6:a9:e3:a2:33:75:f2:5f:34:47:5d
    Signature Algorithm: sha256WithRSAEncryption
        Issuer: C=US, O=Hazelcast Test, CN=Hazelcast Test Sub CA
        Validity
            Not Before: Jan 21 15:14:28 2019 GMT
            Not After : Jan 16 15:14:28 2039 GMT
        Subject: C=US, O=Hazelcast Test, CN=server
        Subject Public Key Info:
            Public Key Algorithm: rsaEncryption
                Public-Key: (2048 bit)
                Modulus:
                    00:ba:69:09:f0:34:a3:19:53:79:80:87:c4:52:88:
                    02:68:c0:08:aa:b1:21:37:7c:cd:6f:1a:8a:bc:2d:
                    85:bd:e2:df:26:8a:9d:59:29:30:e1:ed:0b:4f:ac:
                    b2:b0:50:f1:76:5e:31:61:c5:20:ab:26:18:7d:07:
                    8f:9e:5a:6b:27:7d:fa:f1:23:12:a1:e4:74:4a:23:
                    c9:4c:e6:90:58:0b:c0:1a:8f:46:a7:d5:19:5e:f6:
                    b8:a6:28:c5:f2:cc:f0:2b:8f:6b:55:f4:5f:18:fb:
                    c8:3d:e5:1e:8a:20:d6:5b:1f:d9:d5:ab:de:3e:ac:
                    fa:7b:17:2f:b6:87:3d:7e:ec:b2:03:0f:f9:c0:a9:
                    a6:30:d4:90:05:df:62:e7:ba:63:f1:e5:e2:6d:90:
                    e8:4c:83:f2:26:d4:44:c7:4e:7d:71:02:e6:85:7b:
                    02:df:e4:e5:8a:3d:24:97:f6:8f:aa:9b:db:bf:42:
                    b4:f1:04:31:fe:54:54:c7:b9:9c:04:67:0c:01:30:
                    fd:da:ca:08:88:24:f4:22:4f:c5:ee:13:a3:76:2f:
                    54:09:33:e6:ab:56:f5:9c:6d:c3:5d:5e:20:06:31:
                    ea:a8:0f:66:2d:b2:fd:4c:97:27:43:c2:e4:cf:58:
                    c7:f0:dc:6f:8b:b5:68:5d:f5:95:d7:59:7d:8c:46:
                    72:2b
                Exponent: 65537 (0x10001)
        X509v3 extensions:
            Authority Information Access: 
                CA Issuers - URI:http://sub-ca.hazelcast-test.download/sub-ca.crt
                OCSP - URI:http://ocsp.sub-ca.hazelcast-test.download:9081

            X509v3 Authority Key Identifier: 
                keyid:4A:57:B3:D9:AB:DE:F2:07:0F:4A:D1:D5:D5:13:B7:CB:74:62:EE:1A

            X509v3 Basic Constraints: critical
                CA:FALSE
            X509v3 CRL Distribution Points: 

                Full Name:
                  URI:http://sub-ca.hazelcast-test.download/sub-ca.crl

            X509v3 Extended Key Usage: 
                TLS Web Client Authentication, TLS Web Server Authentication
            X509v3 Key Usage: critical
                Digital Signature, Key Encipherment
            X509v3 Subject Key Identifier: 
                D9:88:D3:C4:C9:AE:B3:7C:D0:AC:4A:CD:06:50:EC:94:E9:2A:6E:E5
    Signature Algorithm: sha256WithRSAEncryption
         94:dd:c6:ac:c2:cc:48:46:9f:dd:1e:e4:e7:3b:d0:5f:86:c0:
         24:f0:ab:3a:bc:e0:92:73:cc:b7:35:fa:63:ec:a6:06:03:90:
         33:90:c4:fa:b3:33:3a:a4:a7:50:ef:70:9d:d1:e6:fc:bd:b7:
         6e:9c:64:76:8b:6a:f8:1b:76:ec:64:4f:cd:e7:6b:aa:b8:70:
         3d:83:44:1f:1a:b0:be:11:7d:25:e9:1a:65:36:ae:6e:e9:c8:
         8b:55:ad:57:ef:97:a1:a3:5c:97:84:a1:50:16:9b:19:20:9b:
         c4:12:5f:93:13:42:e1:ff:c3:8d:d6:de:06:5a:9c:26:04:32:
         e8:ab:84:a3:ca:79:99:46:4b:71:83:11:18:e9:a0:c9:cd:bb:
         1a:c6:86:27:55:ea:c2:79:b7:cd:d0:36:ca:8d:a5:7f:e6:38:
         78:25:1b:a7:ba:64:6b:4d:b1:ff:71:9e:4b:f1:6d:c5:16:85:
         e0:b4:bc:64:5b:56:da:b7:86:a7:db:35:e1:79:30:10:3c:cc:
         8d:40:f1:02:1c:3b:9d:a6:7e:9d:82:55:a8:0b:0e:3e:d0:a9:
         5c:fd:b8:85:d2:06:dd:15:08:4c:a7:90:2a:31:67:b9:e0:e7:
         72:1e:71:3a:a0:64:b0:5f:92:b1:95:c2:e7:42:da:58:04:b6:
         56:06:0a:72
-----BEGIN CERTIFICATE-----
MIIEWTCCA0GgAwIBAgIQHG4sggDmqeOiM3XyXzRHXTANBgkqhkiG9w0BAQsFADBG
MQswCQYDVQQGEwJVUzEXMBUGA1UECgwOSGF6ZWxjYXN0IFRlc3QxHjAcBgNVBAMM
FUhhemVsY2FzdCBUZXN0IFN1YiBDQTAeFw0xOTAxMjExNTE0MjhaFw0zOTAxMTYx
NTE0MjhaMDcxCzAJBgNVBAYTAlVTMRcwFQYDVQQKDA5IYXplbGNhc3QgVGVzdDEP
MA0GA1UEAwwGc2VydmVyMIIBIjANBgkqhkiG9w0BAQEFAAOCAQ8AMIIBCgKCAQEA
umkJ8DSjGVN5gIfEUogCaMAIqrEhN3zNbxqKvC2FveLfJoqdWSkw4e0LT6yysFDx
dl4xYcUgqyYYfQePnlprJ3368SMSoeR0SiPJTOaQWAvAGo9Gp9UZXva4pijF8szw
K49rVfRfGPvIPeUeiiDWWx/Z1avePqz6excvtoc9fuyyAw/5wKmmMNSQBd9i57pj
8eXibZDoTIPyJtREx059cQLmhXsC3+Tlij0kl/aPqpvbv0K08QQx/lRUx7mcBGcM
ATD92soIiCT0Ik/F7hOjdi9UCTPmq1b1nG3DXV4gBjHqqA9mLbL9TJcnQ8Lkz1jH
8Nxvi7VoXfWV11l9jEZyKwIDAQABo4IBUDCCAUwwgYkGCCsGAQUFBwEBBH0wezA8
BggrBgEFBQcwAoYwaHR0cDovL3N1Yi1jYS5oYXplbGNhc3QtdGVzdC5kb3dubG9h
ZC9zdWItY2EuY3J0MDsGCCsGAQUFBzABhi9odHRwOi8vb2NzcC5zdWItY2EuaGF6
ZWxjYXN0LXRlc3QuZG93bmxvYWQ6OTA4MTAfBgNVHSMEGDAWgBRKV7PZq97yBw9K
0dXVE7fLdGLuGjAMBgNVHRMBAf8EAjAAMEEGA1UdHwQ6MDgwNqA0oDKGMGh0dHA6
Ly9zdWItY2EuaGF6ZWxjYXN0LXRlc3QuZG93bmxvYWQvc3ViLWNhLmNybDAdBgNV
HSUEFjAUBggrBgEFBQcDAgYIKwYBBQUHAwEwDgYDVR0PAQH/BAQDAgWgMB0GA1Ud
DgQWBBTZiNPEya6zfNCsSs0GUOyU6Spu5TANBgkqhkiG9w0BAQsFAAOCAQEAlN3G
rMLMSEaf3R7k5zvQX4bAJPCrOrzgknPMtzX6Y+ymBgOQM5DE+rMzOqSnUO9wndHm
/L23bpxkdotq+Bt27GRPzedrqrhwPYNEHxqwvhF9JekaZTaubunIi1WtV++XoaNc
l4ShUBabGSCbxBJfkxNC4f/DjdbeBlqcJgQy6KuEo8p5mUZLcYMRGOmgyc27GsaG
J1Xqwnm3zdA2yo2lf+Y4eCUbp7pka02x/3GeS/FtxRaF4LS8ZFtW2reGp9s14Xkw
EDzMjUDxAhw7naZ+nYJVqAsOPtCpXP24hdIG3RUITKeQKjFnueDnch5xOqBksF+S
sZXC50LaWAS2VgYKcg==
-----END CERTIFICATE-----
Certificate:
    Data:
        Version: 3 (0x2)
        Serial Number:
            68:c5:9e:c1:68:1b:73:2f:1f:1c:17:af:01:cd:27:98
    Signature Algorithm: sha256WithRSAEncryption
        Issuer: C=US, O=Hazelcast Test, CN=Hazelcast Test Root CA
        Validity
            Not Before: Jan 21 15:14:27 2019 GMT
            Not After : Jan 16 15:14:27 2039 GMT
        Subject: C=US, O=Hazelcast Test, CN=Hazelcast Test Sub CA
        Subject Public Key Info:
            Public Key Algorithm: rsaEncryption
                Public-Key: (2048 bit)
                Modulus:
                    00:ce:45:c7:4f:1b:4a:ca:dc:0a:9c:31:92:51:ac:
                    ee:1d:5e:4a:db:d5:23:76:3e:e7:f3:78:8b:99:1d:
                    fa:61:ba:63:3b:80:f1:2e:3c:4d:47:a7:7b:ec:ef:
                    3d:47:f7:7d:c4:0d:c7:b1:65:6c:e2:8d:09:a5:80:
                    a7:cd:d4:11:1f:ca:ed:51:4b:71:35:7f:d2:0d:3e:
                    e5:72:b1:28:67:56:f0:f7:9d:f9:28:5e:af:b0:fa:
                    39:a6:2e:44:90:07:3f:c2:b7:04:15:f9:cb:f0:08:
                    76:58:11:a9:20:f2:51:90:76:24:6a:a3:24:a9:cc:
                    8b:8d:41:88:28:14:f9:3b:93:31:3d:ec:de:1e:86:
                    a1:08:75:9a:a7:4f:e5:bc:81:06:cc:c0:58:7f:d4:
                    d0:f9:50:cd:ea:76:67:39:37:f1:0e:37:14:e5:7b:
                    89:52:e8:b1:f0:30:93:6b:99:2a:b7:26:53:c7:ab:
                    ad:6c:c6:4c:1a:fd:76:99:aa:51:b2:1a:9b:db:7e:
                    19:ab:dc:e8:f1:86:75:0a:a9:a6:d9:88:44:09:3a:
                    0b:fc:b1:a8:0f:b5:65:6a:b0:96:7b:70:37:9a:a7:
                    00:fb:ec:96:e4:47:3d:78:43:6f:62:a4:70:83:7a:
                    0f:ba:d8:69:1b:a6:7f:b3:91:ea:61:13:51:0f:52:
                    c0:9f
                Exponent: 65537 (0x10001)
        X509v3 extensions:
            Authority Information Access: 
                CA Issuers - URI:http://root-ca.hazelcast-test.download/root-ca.crt
                OCSP - URI:http://ocsp.root-ca.hazelcast-test.download:9080

            X509v3 Authority Key Identifier: 
                keyid:DF:C8:4B:2D:1A:FB:97:E1:94:4D:13:1D:A3:39:B9:57:26:73:66:86

            X509v3 Basic Constraints: critical
                CA:TRUE, pathlen:0
            X509v3 CRL Distribution Points: 

                Full Name:
                  URI:http://root-ca.hazelcast-test.download/root-ca.crl

            X509v3 Extended Key Usage: 
                TLS Web Client Authentication, TLS Web Server Authentication
            X509v3 Key Usage: critical
                Certificate Sign, CRL Sign
            X509v3 Name Constraints: 
                Permitted:
                  DNS:example.com
                  DNS:example.org
                Excluded:
                  IP:0.0.0.0/0.0.0.0
                  IP:0:0:0:0:0:0:0:0/0:0:0:0:0:0:0:0

            X509v3 Subject Key Identifier: 
                4A:57:B3:D9:AB:DE:F2:07:0F:4A:D1:D5:D5:13:B7:CB:74:62:EE:1A
    Signature Algorithm: sha256WithRSAEncryption
         c7:16:88:4a:e4:9e:36:b1:20:ab:00:b6:bb:36:53:78:dc:51:
         f1:9a:34:28:da:0f:24:bb:d2:e1:cf:0a:46:ea:a7:e0:94:2e:
         03:ae:37:c0:a1:ca:a0:31:ca:48:cf:f6:60:78:30:b8:43:21:
         b1:68:87:1b:19:22:85:49:97:83:a0:06:57:3e:09:99:7e:5d:
         5e:07:dd:a7:8c:43:5c:f3:0d:a3:53:a6:81:d8:f1:7a:4d:dd:
         b8:b0:42:1e:59:7c:98:89:7e:71:89:12:ed:3b:d2:df:88:02:
         bc:08:48:49:73:59:3b:ac:5f:ae:67:17:6a:a6:0a:04:3d:d7:
         49:aa:be:3f:5e:92:06:34:c1:c4:d7:42:1c:be:45:ac:f7:e0:
         d8:10:01:62:3e:8e:6f:b0:f8:38:f6:cb:fa:63:54:47:0c:62:
         f9:27:38:88:0a:23:ba:af:81:c6:89:fa:5a:b3:25:f3:c1:2e:
         2f:93:d1:a4:5d:61:f2:c4:d1:c8:b5:51:47:26:06:7e:99:12:
         a5:d8:ba:41:75:af:fd:36:60:49:71:70:e5:f3:5d:e7:4c:34:
         e9:a5:d3:90:33:ba:95:b7:e0:6e:95:2b:5d:d9:a8:7e:23:9f:
         50:6b:74:fc:20:33:67:08:04:39:72:70:0c:e8:74:c9:43:dc:
         4a:09:6e:9e:f7:2b:c9:39:7f:33:25:58:01:4f:42:36:0e:84:
         03:00:7b:68:0d:d0:02:3c:05:a6:56:4f:c6:3c:47:2c:08:01:
         0c:d0:28:4a:f3:18:5f:01:87:9b:62:bc:74:39:77:19:b1:b2:
         92:66:eb:63:09:4c:4c:60:e9:9e:27:eb:57:41:ec:b5:44:de:
         ff:72:6c:fd:85:19:27:6b:08:bc:5a:70:50:a3:ab:75:9b:b3:
         90:5e:24:7f:45:92:a2:e8:4b:f7:13:d3:72:a1:54:18:9d:07:
         a7:7b:45:5b:c5:f5:bb:b5:48:1e:5c:4d:0a:b9:45:8f:d9:ab:
         51:c2:83:7f:28:1e:a0:b9:9b:87:7b:07:74:5f:9f:94:03:b7:
         54:89:7c:86:9d:26:cd:e7:62:37:01:16:88:ac:bd:ee:f9:fb:
         54:00:d0:c6:f7:bb:b7:0c:d8:8a:21:94:d9:9a:07:ee:25:48:
         d6:c1:e1:da:03:47:f5:57:4f:a7:66:f2:3d:ca:b0:1e:ae:3e:
         63:28:98:56:7a:50:76:75:09:0f:6f:51:6a:61:44:39:2a:72:
         b9:79:4c:02:41:b3:b0:70:6c:fc:44:30:d9:0e:c6:a0:b5:e9:
         53:98:fa:84:fd:d4:a2:1a:5c:59:0a:b8:eb:8b:43:0f:d9:a5:
         e9:f4:10:08:78:7b:83:89
-----BEGIN CERTIFICATE-----
MIIF0jCCA7qgAwIBAgIQaMWewWgbcy8fHBevAc0nmDANBgkqhkiG9w0BAQsFADBH
MQswCQYDVQQGEwJVUzEXMBUGA1UECgwOSGF6ZWxjYXN0IFRlc3QxHzAdBgNVBAMM
FkhhemVsY2FzdCBUZXN0IFJvb3QgQ0EwHhcNMTkwMTIxMTUxNDI3WhcNMzkwMTE2
MTUxNDI3WjBGMQswCQYDVQQGEwJVUzEXMBUGA1UECgwOSGF6ZWxjYXN0IFRlc3Qx
HjAcBgNVBAMMFUhhemVsY2FzdCBUZXN0IFN1YiBDQTCCASIwDQYJKoZIhvcNAQEB
BQADggEPADCCAQoCggEBAM5Fx08bSsrcCpwxklGs7h1eStvVI3Y+5/N4i5kd+mG6
YzuA8S48TUene+zvPUf3fcQNx7FlbOKNCaWAp83UER/K7VFLcTV/0g0+5XKxKGdW
8Ped+Sher7D6OaYuRJAHP8K3BBX5y/AIdlgRqSDyUZB2JGqjJKnMi41BiCgU+TuT
MT3s3h6GoQh1mqdP5byBBszAWH/U0PlQzep2Zzk38Q43FOV7iVLosfAwk2uZKrcm
U8errWzGTBr9dpmqUbIam9t+Gavc6PGGdQqpptmIRAk6C/yxqA+1ZWqwlntwN5qn
APvsluRHPXhDb2KkcIN6D7rYaRumf7OR6mETUQ9SwJ8CAwEAAaOCAbkwggG1MIGN
BggrBgEFBQcBAQSBgDB+MD4GCCsGAQUFBzAChjJodHRwOi8vcm9vdC1jYS5oYXpl
bGNhc3QtdGVzdC5kb3dubG9hZC9yb290LWNhLmNydDA8BggrBgEFBQcwAYYwaHR0
cDovL29jc3Aucm9vdC1jYS5oYXplbGNhc3QtdGVzdC5kb3dubG9hZDo5MDgwMB8G
A1UdIwQYMBaAFN/ISy0a+5fhlE0THaM5uVcmc2aGMBIGA1UdEwEB/wQIMAYBAf8C
AQAwQwYDVR0fBDwwOjA4oDagNIYyaHR0cDovL3Jvb3QtY2EuaGF6ZWxjYXN0LXRl
c3QuZG93bmxvYWQvcm9vdC1jYS5jcmwwHQYDVR0lBBYwFAYIKwYBBQUHAwIGCCsG
AQUFBwMBMA4GA1UdDwEB/wQEAwIBBjBbBgNVHR4EVDBSoB4wDYILZXhhbXBsZS5j
b20wDYILZXhhbXBsZS5vcmehMDAKhwgAAAAAAAAAADAihyAAAAAAAAAAAAAAAAAA
AAAAAAAAAAAAAAAAAAAAAAAAADAdBgNVHQ4EFgQUSlez2ave8gcPStHV1RO3y3Ri
7howDQYJKoZIhvcNAQELBQADggIBAMcWiErknjaxIKsAtrs2U3jcUfGaNCjaDyS7
0uHPCkbqp+CULgOuN8ChyqAxykjP9mB4MLhDIbFohxsZIoVJl4OgBlc+CZl+XV4H
3aeMQ1zzDaNTpoHY8XpN3biwQh5ZfJiJfnGJEu070t+IArwISElzWTusX65nF2qm
CgQ910mqvj9ekgY0wcTXQhy+Raz34NgQAWI+jm+w+Dj2y/pjVEcMYvknOIgKI7qv
gcaJ+lqzJfPBLi+T0aRdYfLE0ci1UUcmBn6ZEqXYukF1r/02YElxcOXzXedMNOml
05AzupW34G6VK13ZqH4jn1BrdPwgM2cIBDlycAzodMlD3EoJbp73K8k5fzMlWAFP
QjYOhAMAe2gN0AI8BaZWT8Y8RywIAQzQKErzGF8Bh5tivHQ5dxmxspJm62MJTExg
6Z4n61dB7LVE3v9ybP2FGSdrCLxacFCjq3Wbs5BeJH9FkqLoS/cT03KhVBidB6d7
RVvF9bu1SB5cTQq5RY/Zq1HCg38oHqC5m4d7B3Rfn5QDt1SJfIadJs3nYjcBFois
ve75+1QA0Mb3u7cM2IohlNmaB+4lSNbB4doDR/VXT6dm8j3KsB6uPmMomFZ6UHZ1
CQ9vUWphRDkqcrl5TAJBs7BwbPxEMNkOxqC16VOY+oT91KIaXFkKuOuLQw/Zpen0
EAh4e4OJ
-----END CERTIFICATE-----
Certificate:
    Data:
        Version: 3 (0x2)
        Serial Number:
            68:c5:9e:c1:68:1b:73:2f:1f:1c:17:af:01:cd:27:97
    Signature Algorithm: sha256WithRSAEncryption
        Issuer: C=US, O=Hazelcast Test, CN=Hazelcast Test Root CA
        Validity
            Not Before: Jan 21 15:14:27 2019 GMT
            Not After : Jan 16 15:14:27 2039 GMT
        Subject: C=US, O=Hazelcast Test, CN=Hazelcast Test Root CA
        Subject Public Key Info:
            Public Key Algorithm: rsaEncryption
                Public-Key: (4096 bit)
                Modulus:
                    00:dd:8a:0f:63:fd:60:0f:7d:15:4c:d5:7a:f5:1e:
                    27:4a:60:3b:92:f2:c7:7a:40:3c:b3:ed:b6:c1:0f:
                    0e:68:96:ad:d2:df:c8:0d:d1:37:14:c8:9e:02:c8:
                    f6:0e:f4:95:4f:e5:d1:98:2c:61:58:04:ad:2f:62:
                    47:e2:e7:1b:86:7b:34:3c:3e:20:49:3b:eb:93:3a:
                    c4:3b:f2:f5:17:50:7c:9d:50:71:17:e9:d1:65:22:
                    b7:66:a1:3f:f9:b4:12:42:a4:01:80:e8:03:fb:f1:
                    4e:2d:39:0a:34:9e:4b:56:c2:23:a7:06:52:6b:c7:
                    a4:77:bb:26:2e:7d:ef:a4:fc:61:c3:a6:a3:c9:3a:
                    64:1c:93:aa:9f:fa:a0:8b:06:76:21:e8:db:3a:54:
                    de:4e:bb:1f:60:6c:64:6a:9c:81:d3:21:d9:6c:0a:
                    19:8f:a1:16:c3:19:b7:b6:69:c7:92:a5:76:e1:f8:
                    1d:a4:c2:96:c4:65:ea:3a:0b:f8:c3:f5:5b:b4:f0:
                    7c:5f:29:30:b9:f0:a8:c8:85:1a:1c:8f:b2:21:b8:
                    1a:dc:f6:a4:9a:fb:9e:e7:d6:92:76:a8:83:d4:92:
                    5d:97:cb:82:0e:ff:be:a4:0d:b2:53:b1:c1:ba:a1:
                    21:c7:b6:fc:c1:8c:0e:b6:b0:48:ab:cc:68:a2:bc:
                    22:e8:11:ee:8d:c1:ac:39:44:fa:c6:cf:37:e1:ad:
                    ff:60:e8:19:7c:76:a8:ae:5d:b0:b4:94:20:45:07:
                    f4:13:9c:07:39:2c:b4:65:3b:f8:ef:35:0f:58:a0:
                    e0:b2:d2:af:c2:8e:46:7d:fd:4a:37:95:8c:3a:c8:
                    e8:b0:7f:e9:4f:ed:06:6f:60:42:55:e0:dc:0f:48:
                    25:95:05:74:45:f4:da:0c:5a:13:84:70:ab:07:21:
                    e1:6f:f0:ac:38:a1:bc:7d:80:a6:fd:8f:5d:64:e7:
                    0e:87:d8:e8:b0:ba:6e:f9:7a:64:53:9e:96:7e:4c:
                    62:55:b2:65:27:da:7d:11:7d:1a:fb:85:0d:48:f1:
                    ee:98:c3:5f:a1:ae:77:d4:51:da:d6:12:d8:d4:c4:
                    9a:b2:d2:37:3e:4b:17:9a:be:3b:a8:87:3b:59:cf:
                    18:c1:76:9f:8f:6f:fc:11:5e:d8:5a:41:9a:a2:79:
                    08:f6:21:bd:52:ae:1c:1f:cc:8f:be:26:9a:3b:78:
                    e8:bf:a7:55:8f:51:94:25:c3:d0:3f:ff:71:52:ce:
                    e4:8f:7e:ec:3f:35:e9:28:53:79:8e:50:01:90:26:
                    02:6e:91:22:24:d2:c9:93:d6:1a:73:0f:75:bb:e2:
                    43:4a:c1:df:5a:9b:ae:d8:34:41:71:51:95:e2:45:
                    29:ac:9b
                Exponent: 65537 (0x10001)
        X509v3 extensions:
            X509v3 Basic Constraints: critical
                CA:TRUE
            X509v3 Key Usage: critical
                Certificate Sign, CRL Sign
            X509v3 Subject Key Identifier: 
                DF:C8:4B:2D:1A:FB:97:E1:94:4D:13:1D:A3:39:B9:57:26:73:66:86
    Signature Algorithm: sha256WithRSAEncryption
         79:0f:a5:df:3e:f1:36:83:8c:6f:5d:f3:75:58:ea:85:18:3d:
         e9:d0:c5:ca:73:3a:86:52:84:3d:63:b2:31:71:ea:b5:02:bf:
         68:d1:61:39:33:8a:2d:1d:66:4e:1f:2f:e4:22:22:03:5f:ba:
         ea:1a:9b:2a:62:e8:c9:ef:f9:f7:52:d7:e4:2f:01:d7:c8:1a:
         16:03:cc:74:2b:61:5e:18:3b:61:fe:c6:0a:5b:6a:04:47:e7:
         0c:8e:e2:6a:70:70:dc:8a:3a:18:04:61:06:b0:0e:09:33:52:
         b0:ea:66:bc:a9:72:b6:41:eb:8e:46:49:d3:22:20:97:58:f1:
         09:d3:26:bb:a3:1b:d7:2a:df:33:12:69:da:f7:4d:fc:a1:75:
         17:d0:b2:9e:1d:a9:41:93:11:51:da:fd:4e:0f:4a:c9:4b:30:
         99:33:f0:8b:f7:7b:05:e2:78:21:e1:2f:70:b4:7d:26:f6:c1:
         9a:e6:61:22:b3:bd:21:bd:33:62:55:5e:4e:41:d5:f2:20:4c:
         43:63:0f:ee:46:06:8b:fd:b9:90:40:1d:92:83:d7:7f:0c:82:
         6b:36:65:2a:52:3f:d2:8b:55:9e:6d:bc:66:48:36:ab:58:92:
         ba:81:84:7d:85:97:c3:81:08:26:b8:17:50:b3:f6:20:11:7a:
         9d:d1:af:c4:b6:0a:1e:0c:03:0b:99:17:99:41:61:c6:63:45:
         73:65:c7:d5:ca:ce:46:e5:d9:15:07:5b:ae:c4:d1:76:4c:3e:
         d9:8b:ef:91:8e:e1:7a:47:d7:3d:bd:8a:7d:df:ed:00:74:f5:
         6e:38:4e:fe:52:c5:d6:ee:fa:8d:1c:05:40:f6:65:14:d4:59:
         b7:b2:d4:6a:57:a4:05:08:d1:e6:3c:41:7f:f5:f1:71:14:b9:
         c8:7f:46:02:38:24:e0:03:2e:42:44:9a:1e:39:f5:ed:9c:e9:
         81:6b:1d:3d:2f:a3:fd:38:75:f3:1a:ce:9e:71:31:44:d3:9e:
         ec:5a:99:22:b7:8d:d3:1b:d2:39:46:88:93:85:69:26:3f:f7:
         61:38:2b:e5:a0:28:d1:b3:87:d8:ce:40:c2:fe:c2:f3:4a:aa:
         d2:eb:e6:d1:af:e8:b2:df:5d:1e:b1:d5:ab:ab:bb:36:ec:19:
         a1:92:bb:dc:38:d3:f1:c7:90:c6:ab:04:92:d1:3b:91:05:77:
         5f:1b:d2:82:f7:f8:d5:d8:e8:19:65:b4:8f:b4:17:21:37:07:
         f8:95:2b:7b:63:7a:6f:35:95:8d:5b:4c:69:08:18:d2:e8:66:
         08:da:5c:f6:f8:cd:71:03:9e:4a:49:76:bf:cd:b9:67:40:39:
         4b:2b:9b:79:2b:d5:38:8e
-----BEGIN CERTIFICATE-----
MIIFWjCCA0KgAwIBAgIQaMWewWgbcy8fHBevAc0nlzANBgkqhkiG9w0BAQsFADBH
MQswCQYDVQQGEwJVUzEXMBUGA1UECgwOSGF6ZWxjYXN0IFRlc3QxHzAdBgNVBAMM
FkhhemVsY2FzdCBUZXN0IFJvb3QgQ0EwHhcNMTkwMTIxMTUxNDI3WhcNMzkwMTE2
MTUxNDI3WjBHMQswCQYDVQQGEwJVUzEXMBUGA1UECgwOSGF6ZWxjYXN0IFRlc3Qx
HzAdBgNVBAMMFkhhemVsY2FzdCBUZXN0IFJvb3QgQ0EwggIiMA0GCSqGSIb3DQEB
AQUAA4ICDwAwggIKAoICAQDdig9j/WAPfRVM1Xr1HidKYDuS8sd6QDyz7bbBDw5o
lq3S38gN0TcUyJ4CyPYO9JVP5dGYLGFYBK0vYkfi5xuGezQ8PiBJO+uTOsQ78vUX
UHydUHEX6dFlIrdmoT/5tBJCpAGA6AP78U4tOQo0nktWwiOnBlJrx6R3uyYufe+k
/GHDpqPJOmQck6qf+qCLBnYh6Ns6VN5Oux9gbGRqnIHTIdlsChmPoRbDGbe2aceS
pXbh+B2kwpbEZeo6C/jD9Vu08HxfKTC58KjIhRocj7IhuBrc9qSa+57n1pJ2qIPU
kl2Xy4IO/76kDbJTscG6oSHHtvzBjA62sEirzGiivCLoEe6Nwaw5RPrGzzfhrf9g
6Bl8dqiuXbC0lCBFB/QTnAc5LLRlO/jvNQ9YoOCy0q/CjkZ9/Uo3lYw6yOiwf+lP
7QZvYEJV4NwPSCWVBXRF9NoMWhOEcKsHIeFv8Kw4obx9gKb9j11k5w6H2Oiwum75
emRTnpZ+TGJVsmUn2n0RfRr7hQ1I8e6Yw1+hrnfUUdrWEtjUxJqy0jc+Sxeavjuo
hztZzxjBdp+Pb/wRXthaQZqieQj2Ib1SrhwfzI++Jpo7eOi/p1WPUZQlw9A//3FS
zuSPfuw/NekoU3mOUAGQJgJukSIk0smT1hpzD3W74kNKwd9am67YNEFxUZXiRSms
mwIDAQABo0IwQDAPBgNVHRMBAf8EBTADAQH/MA4GA1UdDwEB/wQEAwIBBjAdBgNV
HQ4EFgQU38hLLRr7l+GUTRMdozm5VyZzZoYwDQYJKoZIhvcNAQELBQADggIBAHkP
pd8+8TaDjG9d83VY6oUYPenQxcpzOoZShD1jsjFx6rUCv2jRYTkzii0dZk4fL+Qi
IgNfuuoamypi6Mnv+fdS1+QvAdfIGhYDzHQrYV4YO2H+xgpbagRH5wyO4mpwcNyK
OhgEYQawDgkzUrDqZrypcrZB645GSdMiIJdY8QnTJrujG9cq3zMSadr3TfyhdRfQ
sp4dqUGTEVHa/U4PSslLMJkz8Iv3ewXieCHhL3C0fSb2wZrmYSKzvSG9M2JVXk5B
1fIgTENjD+5GBov9uZBAHZKD138Mgms2ZSpSP9KLVZ5tvGZINqtYkrqBhH2Fl8OB
CCa4F1Cz9iARep3Rr8S2Ch4MAwuZF5lBYcZjRXNlx9XKzkbl2RUHW67E0XZMPtmL
75GO4XpH1z29in3f7QB09W44Tv5Sxdbu+o0cBUD2ZRTUWbey1GpXpAUI0eY8QX/1
8XEUuch/RgI4JOADLkJEmh459e2c6YFrHT0vo/04dfMazp5xMUTTnuxamSK3jdMb
0jlGiJOFaSY/92E4K+WgKNGzh9jOQML+wvNKqtLr5tGv6LLfXR6x1auruzbsGaGS
u9w40/HHkMarBJLRO5EFd18b0oL3+NXY6BlltI+0FyE3B/iVK3tjem81lY1bTGkI
GNLoZgjaXPb4zXEDnkpJdr/NuWdAOUsrm3kr1TiO
-----END CERTIFICATE-----
